target datalayout = "e-m:e-p270:32:32-p271:32:32-p272:64:64-i64:64-i128:128-f80:128-n8:16:32:64-S128"
target triple = "x86_64-unknown-linux-gnu"

%"class.icu_75::LocaleMatcher::Builder" = type { i32, ptr, i32, i32, ptr, i8, i32, i32, ptr, ptr }

; Function Attrs: mustprogress nounwind uwtable
define internal noundef signext i8 @_ZL9U_FAILURE10UErrorCode(i32 noundef %code) #0 {
entry:
  %code.addr = alloca i32, align 4
  store i32 %code, ptr %code.addr, align 4
  %0 = load i32, ptr %code.addr, align 4
  %cmp = icmp sgt i32 %0, 0
  %conv = zext i1 %cmp to i8
  ret i8 %conv
}

; Function Attrs: mustprogress uwtable
define noundef nonnull align 8 dereferenceable(64) ptr @_ZN6icu_7513LocaleMatcher7Builder16setDefaultLocaleEPKNS_6LocaleE(ptr noundef nonnull align 8 dereferenceable(64) %this, ptr noundef %defaultLocale) #1 align 2 {
entry:
  %retval = alloca ptr, align 8
  %this.addr = alloca ptr, align 8
  %defaultLocale.addr = alloca ptr, align 8
  %clone = alloca ptr, align 8
  store ptr %this, ptr %this.addr, align 8
  store ptr %defaultLocale, ptr %defaultLocale.addr, align 8
  %this1 = load ptr, ptr %this.addr, align 8
  %errorCode_ = getelementptr inbounds %"class.icu_75::LocaleMatcher::Builder", ptr %this1, i32 0, i32 0
  %0 = load i32, ptr %errorCode_, align 8
  %call = call noundef signext i8 @_ZL9U_FAILURE10UErrorCode(i32 noundef %0)
  %tobool = icmp ne i8 %call, 0
  br i1 %tobool, label %if.then, label %if.end

if.then:                                          ; preds = %entry
  store ptr %this1, ptr %retval, align 8
  br label %return

if.end:                                           ; preds = %entry
  store ptr null, ptr %clone, align 8
  %1 = load ptr, ptr %defaultLocale.addr, align 8
  %cmp = icmp ne ptr %1, null
  br i1 %cmp, label %if.then2, label %if.end8

if.then2:                                         ; preds = %if.end
  %2 = load ptr, ptr %defaultLocale.addr, align 8
  %call3 = call noundef ptr @_ZNK6icu_756Locale5cloneEv(ptr noundef nonnull align 8 dereferenceable(217) %2)
  store ptr %call3, ptr %clone, align 8
  %3 = load ptr, ptr %clone, align 8
  %cmp4 = icmp eq ptr %3, null
  br i1 %cmp4, label %if.then5, label %if.end7

if.then5:                                         ; preds = %if.then2
  %errorCode_6 = getelementptr inbounds %"class.icu_75::LocaleMatcher::Builder", ptr %this1, i32 0, i32 0
  store i32 7, ptr %errorCode_6, align 8
  store ptr %this1, ptr %retval, align 8
  br label %return

if.end7:                                          ; preds = %if.then2
  br label %if.end8

if.end8:                                          ; preds = %if.end7, %if.end
  %defaultLocale_ = getelementptr inbounds %"class.icu_75::LocaleMatcher::Builder", ptr %this1, i32 0, i32 4
  %4 = load ptr, ptr %defaultLocale_, align 8
  %isnull = icmp eq ptr %4, null
  br i1 %isnull, label %delete.end, label %delete.notnull

delete.notnull:                                   ; preds = %if.end8
  %vtable = load ptr, ptr %4, align 8
  %vfn = getelementptr inbounds ptr, ptr %vtable, i64 1
  %5 = load ptr, ptr %vfn, align 8
  call void %5(ptr noundef nonnull align 8 dereferenceable(217) %4) #11
  br label %delete.end

delete.end:                                       ; preds = %delete.notnull, %if.end8
  %6 = load ptr, ptr %clone, align 8
  %defaultLocale_9 = getelementptr inbounds %"class.icu_75::LocaleMatcher::Builder", ptr %this1, i32 0, i32 4
  store ptr %6, ptr %defaultLocale_9, align 8
  %withDefault_ = getelementptr inbounds %"class.icu_75::LocaleMatcher::Builder", ptr %this1, i32 0, i32 5
  store i8 1, ptr %withDefault_, align 8
  store ptr %this1, ptr %retval, align 8
  br label %return

return:                                           ; preds = %delete.end, %if.then5, %if.then
  %7 = load ptr, ptr %retval, align 8
  ret ptr %7
}