; Function Attrs: mustprogress uwtable
define noundef nonnull align 8 dereferenceable(64) ptr @_ZN6icu_7513LocaleMatcher7Builder16setDefaultLocaleEPKNS_6LocaleE(ptr noundef nonnull returned align 8 dereferenceable(64) %this, ptr noundef %defaultLocale) local_unnamed_addr #2 align 2 {
entry:
  %0 = load i32, ptr %this, align 8
  %cmp.i = icmp slt i32 %0, 1
  br i1 %cmp.i, label %if.end, label %return

if.end:                                           ; preds = %entry
  %cmp.not = icmp eq ptr %defaultLocale, null
  br i1 %cmp.not, label %if.end8, label %if.then2

if.then2:                                         ; preds = %if.end
  %call3 = tail call noundef ptr @_ZNK6icu_756Locale5cloneEv(ptr noundef nonnull align 8 dereferenceable(217) %defaultLocale)
  %cmp4 = icmp eq ptr %call3, null
  br i1 %cmp4, label %if.then5, label %if.end8

if.then5:                                         ; preds = %if.then2
  store i32 7, ptr %this, align 8
  br label %return

if.end8:                                          ; preds = %if.then2, %if.end
  %clone.0 = phi ptr [ %call3, %if.then2 ], [ null, %if.end ]
  %defaultLocale_ = getelementptr inbounds i8, ptr %this, i64 24
  %1 = load ptr, ptr %defaultLocale_, align 8
  %isnull = icmp eq ptr %1, null
  br i1 %isnull, label %delete.end, label %delete.notnull

delete.notnull:                                   ; preds = %if.end8
  %vtable = load ptr, ptr %1, align 8
  %vfn = getelementptr inbounds i8, ptr %vtable, i64 8
  %2 = load ptr, ptr %vfn, align 8
  tail call void %2(ptr noundef nonnull align 8 dereferenceable(217) %1) #15
  br label %delete.end

delete.end:                                       ; preds = %delete.notnull, %if.end8
  store ptr %clone.0, ptr %defaultLocale_, align 8
  %withDefault_ = getelementptr inbounds i8, ptr %this, i64 32
  store i8 1, ptr %withDefault_, align 8
  br label %return

return:                                           ; preds = %entry, %delete.end, %if.then5
  ret ptr %this
}